; Function Attrs: mustprogress nofree norecurse nosync nounwind willreturn memory(argmem: read) uwtable
define hidden noundef ptr @_ZN10MethodData36exception_handler_bci_to_data_helperEi(ptr noundef nonnull align 8 dereferenceable(312) %0, i32 noundef %1) local_unnamed_addr #10 align 2 {
  %3 = getelementptr inbounds i8, ptr %0, i64 16
  %4 = load i32, ptr %3, align 8
  %5 = sext i32 %4 to i64
  %6 = getelementptr inbounds i8, ptr %0, i64 %5
  %7 = getelementptr inbounds i8, ptr %0, i64 300
  %8 = load i32, ptr %7, align 4
  %9 = getelementptr inbounds i8, ptr %0, i64 304
  %10 = sext i32 %8 to i64
  %11 = getelementptr inbounds i8, ptr %9, i64 %10
  %12 = ptrtoint ptr %6 to i64
  %13 = ptrtoint ptr %11 to i64
  %14 = sub i64 %12, %13
  %15 = trunc i64 %14 to i32
  %16 = icmp sgt i32 %15, 7
  br i1 %16, label %.lr.ph.preheader, label %._crit_edge

.lr.ph.preheader:                                 ; preds = %2
  %17 = lshr i64 %14, 3
  %wide.trip.count = and i64 %17, 268435455
  %invariant.gep = getelementptr i8, ptr %9, i64 %10
  br label %.lr.ph

18:                                               ; preds = %.lr.ph
  %indvars.iv.next = add nuw nsw i64 %indvars.iv, 1
  %exitcond.not = icmp eq i64 %indvars.iv.next, %wide.trip.count
  br i1 %exitcond.not, label %._crit_edge, label %.lr.ph, !llvm.loop !31

.lr.ph:                                           ; preds = %.lr.ph.preheader, %18
  %indvars.iv = phi i64 [ 0, %.lr.ph.preheader ], [ %indvars.iv.next, %18 ]
  %19 = shl nsw i64 %indvars.iv, 3
  %gep = getelementptr i8, ptr %invariant.gep, i64 %19
  %20 = getelementptr inbounds i8, ptr %gep, i64 2
  %21 = load i16, ptr %20, align 2
  %22 = zext i16 %21 to i32
  %23 = icmp eq i32 %22, %1
  br i1 %23, label %._crit_edge, label %18

._crit_edge:                                      ; preds = %.lr.ph, %18, %2
  %.0 = phi ptr [ null, %2 ], [ null, %18 ], [ %gep, %.lr.ph ]
  ret ptr %.0
}